(lp0
(S'deps'
p1
ccopy_reg
_reconstructor
p2
(cino.utils
SpaceList
p3
c__builtin__
list
p4
(lp5
S'.build/atmega328/src/dependencies.d'
p6
aS'.build/atmega328/arduino/dependencies.d'
p7
aS'.build/atmega328/SPI/dependencies.d'
p8
atp9
Rp10
tp11
a(S'stty'
p12
S'/bin/stty'
p13
tp14
a(S'version.txt'
p15
S'/Applications/Arduino.app/Contents/Resources/Java/lib/version.txt'
p16
tp17
a(S'used_libs'
p18
(lp19
S'/Applications/Arduino.app/Contents/Resources/Java/libraries/SPI'
p20
aS'/Applications/Arduino.app/Contents/Resources/Java/hardware/arduino/cores/arduino'
p21
atp22
a(S'cc'
p23
S'/Applications/Arduino.app/Contents/Resources/Java/hardware/tools/avr/bin/avr-gcc'
p24
tp25
a(S'arduino_libraries_dir'
p26
S'/Applications/Arduino.app/Contents/Resources/Java/libraries'
p27
tp28
a(S'arduino_core_dir'
p29
g21
tp30
a(S'boards.txt'
p31
S'/Applications/Arduino.app/Contents/Resources/Java/hardware/arduino/boards.txt'
p32
tp33
a(S'cxxflags'
p34
g2
(g3
g4
(lp35
S'-fno-exceptions'
p36
atp37
Rp38
tp39
a(S'arduino_variants_dir'
p40
S'/Applications/Arduino.app/Contents/Resources/Java/hardware/arduino/variants'
p41
tp42
a(S'avrdude'
p43
S'/Applications/Arduino.app/Contents/Resources/Java/hardware/tools/avr/bin/avrdude'
p44
tp45
a(S'avrdude.conf'
p46
S'/Applications/Arduino.app/Contents/Resources/Java/hardware/tools/avr/etc/avrdude.conf'
p47
tp48
a(S'names'
p49
(dp50
S'cpp'
p51
S'%s.cpp'
p52
sS'obj'
p53
S'%s.o'
p54
sS'deps'
p55
S'%s.d'
p56
sS'lib'
p57
S'lib%s.a'
p58
stp59
a(S'cflags'
p60
g2
(g3
g4
(lp61
S'-mmcu=atmega328p'
p62
aS'-ffunction-sections'
p63
aS'-fdata-sections'
p64
aS'-g'
p65
aS'-Os'
p66
aS'-w'
p67
aS'-DF_CPU=16000000L'
p68
aS'-DARDUINO=100'
p69
aS'-I/Applications/Arduino.app/Contents/Resources/Java/hardware/arduino/cores/arduino'
p70
aS'-I/Applications/Arduino.app/Contents/Resources/Java/hardware/arduino/variants/standard'
p71
aS'-I/Applications/Arduino.app/Contents/Resources/Java/libraries/SPI'
p72
aS'-I/Applications/Arduino.app/Contents/Resources/Java/hardware/arduino/cores/arduino'
p73
atp74
Rp75
tp76
a(S'elfflags'
p77
g2
(g3
g4
(lp78
g66
aS'-Wl,--gc-sections'
p79
ag62
atp80
Rp81
tp82
a(S'arduino_lib_version'
p83
g2
(cino.environment
Version
p84
c__builtin__
tuple
p85
(I1
I0
tp86
tp87
Rp88
tp89
a(S'objcopy'
p90
S'/Applications/Arduino.app/Contents/Resources/Java/hardware/tools/avr/bin/avr-objcopy'
p91
tp92
a(S'ar'
p93
S'/Applications/Arduino.app/Contents/Resources/Java/hardware/tools/avr/bin/avr-ar'
p94
tp95
a(S'board_models'
p96
cino.environment
BoardModels
p97
((lp98
(lp99
S'uno'
p100
a(dp101
S'bootloader'
p102
(dp103
S'extended_fuses'
p104
S'0x05'
p105
sS'high_fuses'
p106
S'0xde'
p107
sS'low_fuses'
p108
S'0xff'
p109
sS'lock_bits'
p110
S'0x0F'
p111
sS'file'
p112
S'optiboot_atmega328.hex'
p113
sS'path'
p114
S'optiboot'
p115
sS'unlock_bits'
p116
S'0x3F'
p117
ssS'build'
p118
(dp119
S'core'
p120
S'arduino'
p121
sS'mcu'
p122
S'atmega328p'
p123
sS'f_cpu'
p124
S'16000000L'
p125
sS'variant'
p126
S'standard'
p127
ssS'name'
p128
S'Arduino Uno'
p129
sS'upload'
p130
(dp131
S'speed'
p132
S'115200'
p133
sS'maximum_size'
p134
S'32256'
p135
sS'protocol'
p136
S'arduino'
p137
ssaa(lp138
S'atmega328'
p139
a(dp140
S'bootloader'
p141
(dp142
S'extended_fuses'
p143
S'0x05'
p144
sS'high_fuses'
p145
S'0xDA'
p146
sS'low_fuses'
p147
S'0xFF'
p148
sS'lock_bits'
p149
S'0x0F'
p150
sS'file'
p151
S'ATmegaBOOT_168_atmega328.hex'
p152
sS'path'
p153
S'atmega'
p154
sS'unlock_bits'
p155
S'0x3F'
p156
ssS'build'
p157
(dp158
S'core'
p159
S'arduino'
p160
sS'mcu'
p161
S'atmega328p'
p162
sS'f_cpu'
p163
S'16000000L'
p164
sS'variant'
p165
S'standard'
p166
ssS'name'
p167
S'Arduino Duemilanove w/ ATmega328'
p168
sS'upload'
p169
(dp170
S'speed'
p171
S'57600'
p172
sS'maximum_size'
p173
S'30720'
p174
sS'protocol'
p175
S'arduino'
p176
ssaa(lp177
S'diecimila'
p178
a(dp179
S'bootloader'
p180
(dp181
S'extended_fuses'
p182
S'0x00'
p183
sS'high_fuses'
p184
S'0xdd'
p185
sS'low_fuses'
p186
S'0xff'
p187
sS'lock_bits'
p188
S'0x0F'
p189
sS'file'
p190
S'ATmegaBOOT_168_diecimila.hex'
p191
sS'path'
p192
S'atmega'
p193
sS'unlock_bits'
p194
S'0x3F'
p195
ssS'build'
p196
(dp197
S'core'
p198
S'arduino'
p199
sS'mcu'
p200
S'atmega168'
p201
sS'f_cpu'
p202
S'16000000L'
p203
sS'variant'
p204
S'standard'
p205
ssS'name'
p206
S'Arduino Diecimila or Duemilanove w/ ATmega168'
p207
sS'upload'
p208
(dp209
S'speed'
p210
S'19200'
p211
sS'maximum_size'
p212
S'14336'
p213
sS'protocol'
p214
S'arduino'
p215
ssaa(lp216
S'nano328'
p217
a(dp218
S'bootloader'
p219
(dp220
S'extended_fuses'
p221
S'0x05'
p222
sS'high_fuses'
p223
S'0xDA'
p224
sS'low_fuses'
p225
S'0xFF'
p226
sS'lock_bits'
p227
S'0x0F'
p228
sS'file'
p229
S'ATmegaBOOT_168_atmega328.hex'
p230
sS'path'
p231
S'atmega'
p232
sS'unlock_bits'
p233
S'0x3F'
p234
ssS'build'
p235
(dp236
S'core'
p237
S'arduino'
p238
sS'mcu'
p239
S'atmega328p'
p240
sS'f_cpu'
p241
S'16000000L'
p242
sS'variant'
p243
S'eightanaloginputs'
p244
ssS'name'
p245
S'Arduino Nano w/ ATmega328'
p246
sS'upload'
p247
(dp248
S'speed'
p249
S'57600'
p250
sS'maximum_size'
p251
S'30720'
p252
sS'protocol'
p253
S'arduino'
p254
ssaa(lp255
S'nano'
p256
a(dp257
S'bootloader'
p258
(dp259
S'extended_fuses'
p260
S'0x00'
p261
sS'high_fuses'
p262
S'0xdd'
p263
sS'low_fuses'
p264
S'0xff'
p265
sS'lock_bits'
p266
S'0x0F'
p267
sS'file'
p268
S'ATmegaBOOT_168_diecimila.hex'
p269
sS'path'
p270
S'atmega'
p271
sS'unlock_bits'
p272
S'0x3F'
p273
ssS'build'
p274
(dp275
S'core'
p276
S'arduino'
p277
sS'mcu'
p278
S'atmega168'
p279
sS'f_cpu'
p280
S'16000000L'
p281
sS'variant'
p282
S'eightanaloginputs'
p283
ssS'name'
p284
S'Arduino Nano w/ ATmega168'
p285
sS'upload'
p286
(dp287
S'speed'
p288
S'19200'
p289
sS'maximum_size'
p290
S'14336'
p291
sS'protocol'
p292
S'arduino'
p293
ssaa(lp294
S'mega2560'
p295
a(dp296
S'bootloader'
p297
(dp298
S'extended_fuses'
p299
S'0xFD'
p300
sS'high_fuses'
p301
S'0xD8'
p302
sS'low_fuses'
p303
S'0xFF'
p304
sS'lock_bits'
p305
S'0x0F'
p306
sS'file'
p307
S'stk500boot_v2_mega2560.hex'
p308
sS'path'
p309
S'stk500v2'
p310
sS'unlock_bits'
p311
S'0x3F'
p312
ssS'build'
p313
(dp314
S'core'
p315
S'arduino'
p316
sS'mcu'
p317
S'atmega2560'
p318
sS'f_cpu'
p319
S'16000000L'
p320
sS'variant'
p321
S'mega'
p322
ssS'name'
p323
S'Arduino Mega 2560 or Mega ADK'
p324
sS'upload'
p325
(dp326
S'speed'
p327
S'115200'
p328
sS'maximum_size'
p329
S'258048'
p330
sS'protocol'
p331
S'wiring'
p332
ssaa(lp333
S'mega'
p334
a(dp335
S'bootloader'
p336
(dp337
S'extended_fuses'
p338
S'0xF5'
p339
sS'high_fuses'
p340
S'0xDA'
p341
sS'low_fuses'
p342
S'0xFF'
p343
sS'lock_bits'
p344
S'0x0F'
p345
sS'file'
p346
S'ATmegaBOOT_168_atmega1280.hex'
p347
sS'path'
p348
S'atmega'
p349
sS'unlock_bits'
p350
S'0x3F'
p351
ssS'build'
p352
(dp353
S'core'
p354
S'arduino'
p355
sS'mcu'
p356
S'atmega1280'
p357
sS'f_cpu'
p358
S'16000000L'
p359
sS'variant'
p360
S'mega'
p361
ssS'name'
p362
S'Arduino Mega (ATmega1280)'
p363
sS'upload'
p364
(dp365
S'speed'
p366
S'57600'
p367
sS'maximum_size'
p368
S'126976'
p369
sS'protocol'
p370
S'arduino'
p371
ssaa(lp372
S'leonardo'
p373
a(dp374
S'bootloader'
p375
(dp376
S'extended_fuses'
p377
S'0xcb'
p378
sS'high_fuses'
p379
S'0xd8'
p380
sS'low_fuses'
p381
S'0xff'
p382
sS'lock_bits'
p383
S'0x2F'
p384
sS'file'
p385
S'Caterina-Leonardo.hex'
p386
sS'path'
p387
S'caterina'
p388
sS'unlock_bits'
p389
S'0x3F'
p390
ssS'build'
p391
(dp392
S'core'
p393
S'arduino'
p394
sS'f_cpu'
p395
S'16000000L'
p396
sS'vid'
p397
S'0x2341'
p398
sS'pid'
p399
S'0x8036'
p400
sS'variant'
p401
S'leonardo'
p402
sS'mcu'
p403
S'atmega32u4'
p404
ssS'name'
p405
S'Arduino Leonardo'
p406
sS'upload'
p407
(dp408
S'speed'
p409
S'57600'
p410
sS'maximum_size'
p411
S'28672'
p412
sS'protocol'
p413
S'avr109'
p414
sS'disable_flushing'
p415
S'true'
p416
ssaa(lp417
S'esplora'
p418
a(dp419
S'bootloader'
p420
(dp421
S'extended_fuses'
p422
S'0xcb'
p423
sS'high_fuses'
p424
S'0xd8'
p425
sS'low_fuses'
p426
S'0xff'
p427
sS'lock_bits'
p428
S'0x2F'
p429
sS'file'
p430
S'Caterina-Esplora.hex'
p431
sS'path'
p432
S'caterina'
p433
sS'unlock_bits'
p434
S'0x3F'
p435
ssS'build'
p436
(dp437
S'core'
p438
S'arduino'
p439
sS'f_cpu'
p440
S'16000000L'
p441
sS'vid'
p442
S'0x2341'
p443
sS'pid'
p444
S'0x803C'
p445
sS'variant'
p446
S'leonardo'
p447
sS'mcu'
p448
S'atmega32u4'
p449
ssS'name'
p450
S'Arduino Esplora'
p451
sS'upload'
p452
(dp453
S'speed'
p454
S'57600'
p455
sS'maximum_size'
p456
S'28672'
p457
sS'protocol'
p458
S'avr109'
p459
sS'disable_flushing'
p460
S'true'
p461
ssaa(lp462
S'micro'
p463
a(dp464
S'bootloader'
p465
(dp466
S'extended_fuses'
p467
S'0xcb'
p468
sS'high_fuses'
p469
S'0xd8'
p470
sS'low_fuses'
p471
S'0xff'
p472
sS'lock_bits'
p473
S'0x2F'
p474
sS'file'
p475
S'Caterina-Micro.hex'
p476
sS'path'
p477
S'caterina'
p478
sS'unlock_bits'
p479
S'0x3F'
p480
ssS'build'
p481
(dp482
S'core'
p483
S'arduino'
p484
sS'f_cpu'
p485
S'16000000L'
p486
sS'vid'
p487
S'0x2341'
p488
sS'pid'
p489
S'0x8037'
p490
sS'variant'
p491
S'micro'
p492
sS'mcu'
p493
S'atmega32u4'
p494
ssS'name'
p495
S'Arduino Micro'
p496
sS'upload'
p497
(dp498
S'speed'
p499
S'57600'
p500
sS'maximum_size'
p501
S'28672'
p502
sS'protocol'
p503
S'avr109'
p504
sS'disable_flushing'
p505
S'true'
p506
ssaa(lp507
S'mini328'
p508
a(dp509
S'bootloader'
p510
(dp511
S'extended_fuses'
p512
S'0x05'
p513
sS'high_fuses'
p514
S'0xd8'
p515
sS'low_fuses'
p516
S'0xff'
p517
sS'lock_bits'
p518
S'0x0F'
p519
sS'file'
p520
S'optiboot_atmega328-Mini.hex'
p521
sS'path'
p522
S'optiboot'
p523
sS'unlock_bits'
p524
S'0x3F'
p525
ssS'build'
p526
(dp527
S'core'
p528
S'arduino'
p529
sS'mcu'
p530
S'atmega328p'
p531
sS'f_cpu'
p532
S'16000000L'
p533
sS'variant'
p534
S'eightanaloginputs'
p535
ssS'name'
p536
S'Arduino Mini w/ ATmega328'
p537
sS'upload'
p538
(dp539
S'speed'
p540
S'115200'
p541
sS'maximum_size'
p542
S'28672'
p543
sS'protocol'
p544
S'arduino'
p545
ssaa(lp546
S'mini'
p547
a(dp548
S'bootloader'
p549
(dp550
S'extended_fuses'
p551
S'0x00'
p552
sS'high_fuses'
p553
S'0xdd'
p554
sS'low_fuses'
p555
S'0xff'
p556
sS'lock_bits'
p557
S'0x0F'
p558
sS'file'
p559
S'ATmegaBOOT_168_ng.hex'
p560
sS'path'
p561
S'atmega'
p562
sS'unlock_bits'
p563
S'0x3F'
p564
ssS'build'
p565
(dp566
S'core'
p567
S'arduino'
p568
sS'mcu'
p569
S'atmega168'
p570
sS'f_cpu'
p571
S'16000000L'
p572
sS'variant'
p573
S'eightanaloginputs'
p574
ssS'name'
p575
S'Arduino Mini w/ ATmega168'
p576
sS'upload'
p577
(dp578
S'speed'
p579
S'19200'
p580
sS'maximum_size'
p581
S'14336'
p582
sS'protocol'
p583
S'arduino'
p584
ssaa(lp585
S'ethernet'
p586
a(dp587
S'bootloader'
p588
(dp589
S'extended_fuses'
p590
S'0x05'
p591
sS'high_fuses'
p592
S'0xde'
p593
sS'low_fuses'
p594
S'0xff'
p595
sS'lock_bits'
p596
S'0x0F'
p597
sS'file'
p598
S'optiboot_atmega328.hex'
p599
sS'path'
p600
S'optiboot'
p601
sS'unlock_bits'
p602
S'0x3F'
p603
ssS'build'
p604
(dp605
S'f_cpu'
p606
S'16000000L'
p607
sS'mcu'
p608
S'atmega328p'
p609
sS'variant'
p610
S'standard'
p611
sS'core'
p612
S'arduino'
p613
ssS'name'
p614
S'Arduino Ethernet'
p615
sS'upload'
p616
(dp617
S'speed'
p618
S'115200'
p619
sS'maximum_size'
p620
S'32256'
p621
sS'protocol'
p622
S'arduino'
p623
ssaa(lp624
S'fio'
p625
a(dp626
S'bootloader'
p627
(dp628
S'extended_fuses'
p629
S'0x05'
p630
sS'high_fuses'
p631
S'0xDA'
p632
sS'low_fuses'
p633
S'0xFF'
p634
sS'lock_bits'
p635
S'0x0F'
p636
sS'file'
p637
S'ATmegaBOOT_168_atmega328_pro_8MHz.hex'
p638
sS'path'
p639
S'arduino:atmega'
p640
sS'unlock_bits'
p641
S'0x3F'
p642
ssS'build'
p643
(dp644
S'core'
p645
S'arduino'
p646
sS'mcu'
p647
S'atmega328p'
p648
sS'f_cpu'
p649
S'8000000L'
p650
sS'variant'
p651
S'eightanaloginputs'
p652
ssS'name'
p653
S'Arduino Fio'
p654
sS'upload'
p655
(dp656
S'speed'
p657
S'57600'
p658
sS'maximum_size'
p659
S'30720'
p660
sS'protocol'
p661
S'arduino'
p662
ssaa(lp663
S'bt328'
p664
a(dp665
S'bootloader'
p666
(dp667
S'extended_fuses'
p668
S'0x05'
p669
sS'high_fuses'
p670
S'0xd8'
p671
sS'low_fuses'
p672
S'0xff'
p673
sS'lock_bits'
p674
S'0x0F'
p675
sS'file'
p676
S'ATmegaBOOT_168_atmega328_bt.hex'
p677
sS'path'
p678
S'bt'
p679
sS'unlock_bits'
p680
S'0x3F'
p681
ssS'build'
p682
(dp683
S'core'
p684
S'arduino'
p685
sS'mcu'
p686
S'atmega328p'
p687
sS'f_cpu'
p688
S'16000000L'
p689
sS'variant'
p690
S'eightanaloginputs'
p691
ssS'name'
p692
S'Arduino BT w/ ATmega328'
p693
sS'upload'
p694
(dp695
S'speed'
p696
S'19200'
p697
sS'maximum_size'
p698
S'28672'
p699
sS'protocol'
p700
S'arduino'
p701
sS'disable_flushing'
p702
S'true'
p703
ssaa(lp704
S'bt'
p705
a(dp706
S'bootloader'
p707
(dp708
S'extended_fuses'
p709
S'0x00'
p710
sS'high_fuses'
p711
S'0xdd'
p712
sS'low_fuses'
p713
S'0xff'
p714
sS'lock_bits'
p715
S'0x0F'
p716
sS'file'
p717
S'ATmegaBOOT_168.hex'
p718
sS'path'
p719
S'bt'
p720
sS'unlock_bits'
p721
S'0x3F'
p722
ssS'build'
p723
(dp724
S'core'
p725
S'arduino'
p726
sS'mcu'
p727
S'atmega168'
p728
sS'f_cpu'
p729
S'16000000L'
p730
sS'variant'
p731
S'eightanaloginputs'
p732
ssS'name'
p733
S'Arduino BT w/ ATmega168'
p734
sS'upload'
p735
(dp736
S'speed'
p737
S'19200'
p738
sS'maximum_size'
p739
S'14336'
p740
sS'protocol'
p741
S'arduino'
p742
sS'disable_flushing'
p743
S'true'
p744
ssaa(lp745
S'LilyPadUSB'
p746
a(dp747
S'bootloader'
p748
(dp749
S'extended_fuses'
p750
S'0xce'
p751
sS'high_fuses'
p752
S'0xd8'
p753
sS'low_fuses'
p754
S'0xff'
p755
sS'lock_bits'
p756
S'0x2F'
p757
sS'file'
p758
S'Caterina-LilyPadUSB.hex'
p759
sS'path'
p760
S'caterina-LilyPadUSB'
p761
sS'unlock_bits'
p762
S'0x3F'
p763
ssS'build'
p764
(dp765
S'core'
p766
S'arduino'
p767
sS'f_cpu'
p768
S'8000000L'
p769
sS'vid'
p770
S'0x1B4F'
p771
sS'pid'
p772
S'0x9208'
p773
sS'variant'
p774
S'leonardo'
p775
sS'mcu'
p776
S'atmega32u4'
p777
ssS'name'
p778
S'LilyPad Arduino USB'
p779
sS'upload'
p780
(dp781
S'speed'
p782
S'57600'
p783
sS'maximum_size'
p784
S'28672'
p785
sS'protocol'
p786
S'avr109'
p787
sS'disable_flushing'
p788
S'true'
p789
ssaa(lp790
S'lilypad328'
p791
a(dp792
S'bootloader'
p793
(dp794
S'extended_fuses'
p795
S'0x05'
p796
sS'high_fuses'
p797
S'0xDA'
p798
sS'low_fuses'
p799
S'0xFF'
p800
sS'lock_bits'
p801
S'0x0F'
p802
sS'file'
p803
S'ATmegaBOOT_168_atmega328_pro_8MHz.hex'
p804
sS'path'
p805
S'atmega'
p806
sS'unlock_bits'
p807
S'0x3F'
p808
ssS'build'
p809
(dp810
S'core'
p811
S'arduino'
p812
sS'mcu'
p813
S'atmega328p'
p814
sS'f_cpu'
p815
S'8000000L'
p816
sS'variant'
p817
S'standard'
p818
ssS'name'
p819
S'LilyPad Arduino w/ ATmega328'
p820
sS'upload'
p821
(dp822
S'speed'
p823
S'57600'
p824
sS'maximum_size'
p825
S'30720'
p826
sS'protocol'
p827
S'arduino'
p828
ssaa(lp829
S'lilypad'
p830
a(dp831
S'bootloader'
p832
(dp833
S'extended_fuses'
p834
S'0x00'
p835
sS'high_fuses'
p836
S'0xdd'
p837
sS'low_fuses'
p838
S'0xe2'
p839
sS'lock_bits'
p840
S'0x0F'
p841
sS'file'
p842
S'LilyPadBOOT_168.hex'
p843
sS'path'
p844
S'lilypad'
p845
sS'unlock_bits'
p846
S'0x3F'
p847
ssS'build'
p848
(dp849
S'core'
p850
S'arduino'
p851
sS'mcu'
p852
S'atmega168'
p853
sS'f_cpu'
p854
S'8000000L'
p855
sS'variant'
p856
S'standard'
p857
ssS'name'
p858
S'LilyPad Arduino w/ ATmega168'
p859
sS'upload'
p860
(dp861
S'speed'
p862
S'19200'
p863
sS'maximum_size'
p864
S'14336'
p865
sS'protocol'
p866
S'arduino'
p867
ssaa(lp868
S'pro5v328'
p869
a(dp870
S'bootloader'
p871
(dp872
S'extended_fuses'
p873
S'0x05'
p874
sS'high_fuses'
p875
S'0xDA'
p876
sS'low_fuses'
p877
S'0xFF'
p878
sS'lock_bits'
p879
S'0x0F'
p880
sS'file'
p881
S'ATmegaBOOT_168_atmega328.hex'
p882
sS'path'
p883
S'atmega'
p884
sS'unlock_bits'
p885
S'0x3F'
p886
ssS'build'
p887
(dp888
S'core'
p889
S'arduino'
p890
sS'mcu'
p891
S'atmega328p'
p892
sS'f_cpu'
p893
S'16000000L'
p894
sS'variant'
p895
S'standard'
p896
ssS'name'
p897
S'Arduino Pro or Pro Mini (5V, 16 MHz) w/ ATmega328'
p898
sS'upload'
p899
(dp900
S'speed'
p901
S'57600'
p902
sS'maximum_size'
p903
S'30720'
p904
sS'protocol'
p905
S'arduino'
p906
ssaa(lp907
S'pro5v'
p908
a(dp909
S'bootloader'
p910
(dp911
S'extended_fuses'
p912
S'0x00'
p913
sS'high_fuses'
p914
S'0xdd'
p915
sS'low_fuses'
p916
S'0xff'
p917
sS'lock_bits'
p918
S'0x0F'
p919
sS'file'
p920
S'ATmegaBOOT_168_diecimila.hex'
p921
sS'path'
p922
S'atmega'
p923
sS'unlock_bits'
p924
S'0x3F'
p925
ssS'build'
p926
(dp927
S'core'
p928
S'arduino'
p929
sS'mcu'
p930
S'atmega168'
p931
sS'f_cpu'
p932
S'16000000L'
p933
sS'variant'
p934
S'standard'
p935
ssS'name'
p936
S'Arduino Pro or Pro Mini (5V, 16 MHz) w/ ATmega168'
p937
sS'upload'
p938
(dp939
S'speed'
p940
S'19200'
p941
sS'maximum_size'
p942
S'14336'
p943
sS'protocol'
p944
S'arduino'
p945
ssaa(lp946
S'pro328'
p947
a(dp948
S'bootloader'
p949
(dp950
S'extended_fuses'
p951
S'0x05'
p952
sS'high_fuses'
p953
S'0xDA'
p954
sS'low_fuses'
p955
S'0xFF'
p956
sS'lock_bits'
p957
S'0x0F'
p958
sS'file'
p959
S'ATmegaBOOT_168_atmega328_pro_8MHz.hex'
p960
sS'path'
p961
S'atmega'
p962
sS'unlock_bits'
p963
S'0x3F'
p964
ssS'build'
p965
(dp966
S'core'
p967
S'arduino'
p968
sS'mcu'
p969
S'atmega328p'
p970
sS'f_cpu'
p971
S'8000000L'
p972
sS'variant'
p973
S'standard'
p974
ssS'name'
p975
S'Arduino Pro or Pro Mini (3.3V, 8 MHz) w/ ATmega328'
p976
sS'upload'
p977
(dp978
S'speed'
p979
S'57600'
p980
sS'maximum_size'
p981
S'30720'
p982
sS'protocol'
p983
S'arduino'
p984
ssaa(lp985
S'pro'
p986
a(dp987
S'bootloader'
p988
(dp989
S'extended_fuses'
p990
S'0x00'
p991
sS'high_fuses'
p992
S'0xdd'
p993
sS'low_fuses'
p994
S'0xc6'
p995
sS'lock_bits'
p996
S'0x0F'
p997
sS'file'
p998
S'ATmegaBOOT_168_pro_8MHz.hex'
p999
sS'path'
p1000
S'atmega'
p1001
sS'unlock_bits'
p1002
S'0x3F'
p1003
ssS'build'
p1004
(dp1005
S'core'
p1006
S'arduino'
p1007
sS'mcu'
p1008
S'atmega168'
p1009
sS'f_cpu'
p1010
S'8000000L'
p1011
sS'variant'
p1012
S'standard'
p1013
ssS'name'
p1014
S'Arduino Pro or Pro Mini (3.3V, 8 MHz) w/ ATmega168'
p1015
sS'upload'
p1016
(dp1017
S'speed'
p1018
S'19200'
p1019
sS'maximum_size'
p1020
S'14336'
p1021
sS'protocol'
p1022
S'arduino'
p1023
ssaa(lp1024
S'atmega168'
p1025
a(dp1026
S'bootloader'
p1027
(dp1028
S'extended_fuses'
p1029
S'0x00'
p1030
sS'high_fuses'
p1031
S'0xdd'
p1032
sS'low_fuses'
p1033
S'0xff'
p1034
sS'lock_bits'
p1035
S'0x0F'
p1036
sS'file'
p1037
S'ATmegaBOOT_168_ng.hex'
p1038
sS'path'
p1039
S'atmega'
p1040
sS'unlock_bits'
p1041
S'0x3F'
p1042
ssS'build'
p1043
(dp1044
S'core'
p1045
S'arduino'
p1046
sS'mcu'
p1047
S'atmega168'
p1048
sS'f_cpu'
p1049
S'16000000L'
p1050
sS'variant'
p1051
S'standard'
p1052
ssS'name'
p1053
S'Arduino NG or older w/ ATmega168'
p1054
sS'upload'
p1055
(dp1056
S'speed'
p1057
S'19200'
p1058
sS'maximum_size'
p1059
S'14336'
p1060
sS'protocol'
p1061
S'arduino'
p1062
ssaa(lp1063
S'atmega8'
p1064
a(dp1065
S'bootloader'
p1066
(dp1067
S'high_fuses'
p1068
S'0xca'
p1069
sS'low_fuses'
p1070
S'0xdf'
p1071
sS'lock_bits'
p1072
S'0x0F'
p1073
sS'file'
p1074
S'ATmegaBOOT-prod-firmware-2009-11-07.hex'
p1075
sS'path'
p1076
S'atmega8'
p1077
sS'unlock_bits'
p1078
S'0x3F'
p1079
ssS'build'
p1080
(dp1081
S'core'
p1082
S'arduino'
p1083
sS'mcu'
p1084
S'atmega8'
p1085
sS'f_cpu'
p1086
S'16000000L'
p1087
sS'variant'
p1088
S'standard'
p1089
ssS'name'
p1090
S'Arduino NG or older w/ ATmega8'
p1091
sS'upload'
p1092
(dp1093
S'speed'
p1094
S'19200'
p1095
sS'maximum_size'
p1096
S'7168'
p1097
sS'protocol'
p1098
S'arduino'
p1099
ssaatp1100
Rp1101
(dp1102
S'default'
p1103
S'uno'
p1104
sbtp1105
a(S'cxx'
p1106
S'/Applications/Arduino.app/Contents/Resources/Java/hardware/tools/avr/bin/avr-g++'
p1107
tp1108
a(S'build_dir'
p1109
S'.build/atmega328'
p1110
tp1111
a.